webrtc-audio-processing-2-1.dll
File Type: LIBRARY

     Exports

       ordinal    name

                  ?$TSS0@?1??empty_entries@RtpPacketInfos@webrtc@@CAAEBV?$vector@VRtpPacketInfo@webrtc@@V?$allocator@VRtpPacketInfo@webrtc@@@std@@@std@@XZ@4HA (int `private: static class std::vector<class webrtc::RtpPacketInfo,class std::allocator<class webrtc::RtpPacketInfo> > const & __cdecl webrtc::RtpPacketInfos::empty_entries(void)'::`2'::$TSS0)
                  ??0AdaptiveDigital@GainController2@Config@AudioProcessing@webrtc@@QEAA@XZ (public: __cdecl webrtc::AudioProcessing::Config::GainController2::AdaptiveDigital::AdaptiveDigital(void))
                  ??0AudioProcessing@webrtc@@QEAA@AEBV01@@Z (public: __cdecl webrtc::AudioProcessing::AudioProcessing(class webrtc::AudioProcessing const &))
                  ??0AudioProcessing@webrtc@@QEAA@XZ (public: __cdecl webrtc::AudioProcessing::AudioProcessing(void))
                  ??0AudioProcessingBuilder@webrtc@@QEAA@XZ (public: __cdecl webrtc::AudioProcessingBuilder::AudioProcessingBuilder(void))
                  ??0AudioProcessingStats@webrtc@@QEAA@AEBU01@@Z (public: __cdecl webrtc::AudioProcessingStats::AudioProcessingStats(struct webrtc::AudioProcessingStats const &))
                  ??0AudioProcessingStats@webrtc@@QEAA@XZ (public: __cdecl webrtc::AudioProcessingStats::AudioProcessingStats(void))
                  ??0Config@AudioProcessing@webrtc@@QEAA@XZ (public: __cdecl webrtc::AudioProcessing::Config::Config(void))
                  ??0CurrentTaskQueueSetter@TaskQueueBase@webrtc@@QEAA@PEAV12@@Z (public: __cdecl webrtc::TaskQueueBase::CurrentTaskQueueSetter::CurrentTaskQueueSetter(class webrtc::TaskQueueBase *))
                  ??0EchoCanceller3Config@webrtc@@QEAA@AEBU01@@Z (public: __cdecl webrtc::EchoCanceller3Config::EchoCanceller3Config(struct webrtc::EchoCanceller3Config const &))
                  ??0EchoCanceller3Config@webrtc@@QEAA@XZ (public: __cdecl webrtc::EchoCanceller3Config::EchoCanceller3Config(void))
                  ??0GainController1@Config@AudioProcessing@webrtc@@QEAA@XZ (public: __cdecl webrtc::AudioProcessing::Config::GainController1::GainController1(void))
                  ??0GainController2@Config@AudioProcessing@webrtc@@QEAA@XZ (public: __cdecl webrtc::AudioProcessing::Config::GainController2::GainController2(void))
                  ??0Pipeline@Config@AudioProcessing@webrtc@@QEAA@XZ (public: __cdecl webrtc::AudioProcessing::Config::Pipeline::Pipeline(void))
                  ??0RtpPacketInfo@webrtc@@QEAA@$$QEAV01@@Z (public: __cdecl webrtc::RtpPacketInfo::RtpPacketInfo(class webrtc::RtpPacketInfo &&))
                  ??0RtpPacketInfo@webrtc@@QEAA@AEBV01@@Z (public: __cdecl webrtc::RtpPacketInfo::RtpPacketInfo(class webrtc::RtpPacketInfo const &))
                  ??0RtpPacketInfos@webrtc@@QEAA@$$QEAV01@@Z (public: __cdecl webrtc::RtpPacketInfos::RtpPacketInfos(class webrtc::RtpPacketInfos &&))
                  ??0RtpPacketInfos@webrtc@@QEAA@$$QEAV?$vector@VRtpPacketInfo@webrtc@@V?$allocator@VRtpPacketInfo@webrtc@@@std@@@std@@@Z (public: __cdecl webrtc::RtpPacketInfos::RtpPacketInfos(class std::vector<class webrtc::RtpPacketInfo,class std::allocator<class webrtc::RtpPacketInfo> > &&))
                  ??0RtpPacketInfos@webrtc@@QEAA@AEBV01@@Z (public: __cdecl webrtc::RtpPacketInfos::RtpPacketInfos(class webrtc::RtpPacketInfos const &))
                  ??0RtpPacketInfos@webrtc@@QEAA@AEBV?$vector@VRtpPacketInfo@webrtc@@V?$allocator@VRtpPacketInfo@webrtc@@@std@@@std@@@Z (public: __cdecl webrtc::RtpPacketInfos::RtpPacketInfos(class std::vector<class webrtc::RtpPacketInfo,class std::allocator<class webrtc::RtpPacketInfo> > const &))
                  ??0RtpPacketInfos@webrtc@@QEAA@XZ (public: __cdecl webrtc::RtpPacketInfos::RtpPacketInfos(void))
                  ??0TaskQueueBase@webrtc@@QEAA@AEBV01@@Z (public: __cdecl webrtc::TaskQueueBase::TaskQueueBase(class webrtc::TaskQueueBase const &))
                  ??0TaskQueueBase@webrtc@@QEAA@XZ (public: __cdecl webrtc::TaskQueueBase::TaskQueueBase(void))
                  ??0TimingFrameInfo@webrtc@@QEAA@XZ (public: __cdecl webrtc::TimingFrameInfo::TimingFrameInfo(void))
                  ??0VideoPlayoutDelay@webrtc@@QEAA@VTimeDelta@1@0@Z (public: __cdecl webrtc::VideoPlayoutDelay::VideoPlayoutDelay(class webrtc::TimeDelta,class webrtc::TimeDelta))
                  ??0VideoPlayoutDelay@webrtc@@QEAA@XZ (public: __cdecl webrtc::VideoPlayoutDelay::VideoPlayoutDelay(void))
                  ??0VideoSendTiming@webrtc@@QEAA@XZ (public: __cdecl webrtc::VideoSendTiming::VideoSendTiming(void))
                  ??1AudioProcessing@webrtc@@UEAA@XZ (public: virtual __cdecl webrtc::AudioProcessing::~AudioProcessing(void))
                  ??1AudioProcessingBuilder@webrtc@@QEAA@XZ (public: __cdecl webrtc::AudioProcessingBuilder::~AudioProcessingBuilder(void))
                  ??1AudioProcessingStats@webrtc@@QEAA@XZ (public: __cdecl webrtc::AudioProcessingStats::~AudioProcessingStats(void))
                  ??1CurrentTaskQueueSetter@TaskQueueBase@webrtc@@QEAA@XZ (public: __cdecl webrtc::TaskQueueBase::CurrentTaskQueueSetter::~CurrentTaskQueueSetter(void))
                  ??1RTPHeader@webrtc@@QEAA@XZ (public: __cdecl webrtc::RTPHeader::~RTPHeader(void))
                  ??1RtpPacketInfo@webrtc@@QEAA@XZ (public: __cdecl webrtc::RtpPacketInfo::~RtpPacketInfo(void))
                  ??1RtpPacketInfos@webrtc@@QEAA@XZ (public: __cdecl webrtc::RtpPacketInfos::~RtpPacketInfos(void))
                  ??1SequenceCheckerImpl@webrtc_sequence_checker_internal@webrtc@@QEAA@XZ (public: __cdecl webrtc::webrtc_sequence_checker_internal::SequenceCheckerImpl::~SequenceCheckerImpl(void))
                  ??1TaskQueueBase@webrtc@@MEAA@XZ (protected: virtual __cdecl webrtc::TaskQueueBase::~TaskQueueBase(void))
                  ??4AdaptiveDigital@GainController2@Config@AudioProcessing@webrtc@@QEAAAEAU01234@$$QEAU01234@@Z (public: struct webrtc::AudioProcessing::Config::GainController2::AdaptiveDigital & __cdecl webrtc::AudioProcessing::Config::GainController2::AdaptiveDigital::operator=(struct webrtc::AudioProcessing::Config::GainController2::AdaptiveDigital &&))
                  ??4AdaptiveDigital@GainController2@Config@AudioProcessing@webrtc@@QEAAAEAU01234@AEBU01234@@Z (public: struct webrtc::AudioProcessing::Config::GainController2::AdaptiveDigital & __cdecl webrtc::AudioProcessing::Config::GainController2::AdaptiveDigital::operator=(struct webrtc::AudioProcessing::Config::GainController2::AdaptiveDigital const &))
                  ??4AecDumpFactory@webrtc@@QEAAAEAV01@$$QEAV01@@Z (public: class webrtc::AecDumpFactory & __cdecl webrtc::AecDumpFactory::operator=(class webrtc::AecDumpFactory &&))
                  ??4AecDumpFactory@webrtc@@QEAAAEAV01@AEBV01@@Z (public: class webrtc::AecDumpFactory & __cdecl webrtc::AecDumpFactory::operator=(class webrtc::AecDumpFactory const &))
                  ??4AudioProcessing@webrtc@@QEAAAEAV01@AEBV01@@Z (public: class webrtc::AudioProcessing & __cdecl webrtc::AudioProcessing::operator=(class webrtc::AudioProcessing const &))
                  ??4AudioProcessingStats@webrtc@@QEAAAEAU01@AEBU01@@Z (public: struct webrtc::AudioProcessingStats & __cdecl webrtc::AudioProcessingStats::operator=(struct webrtc::AudioProcessingStats const &))
                  ??4Config@AudioProcessing@webrtc@@QEAAAEAU012@$$QEAU012@@Z (public: struct webrtc::AudioProcessing::Config & __cdecl webrtc::AudioProcessing::Config::operator=(struct webrtc::AudioProcessing::Config &&))
                  ??4Config@AudioProcessing@webrtc@@QEAAAEAU012@AEBU012@@Z (public: struct webrtc::AudioProcessing::Config & __cdecl webrtc::AudioProcessing::Config::operator=(struct webrtc::AudioProcessing::Config const &))
                  ??4EchoCanceller3Config@webrtc@@QEAAAEAU01@AEBU01@@Z (public: struct webrtc::EchoCanceller3Config & __cdecl webrtc::EchoCanceller3Config::operator=(struct webrtc::EchoCanceller3Config const &))
                  ??4GainController1@Config@AudioProcessing@webrtc@@QEAAAEAU0123@$$QEAU0123@@Z (public: struct webrtc::AudioProcessing::Config::GainController1 & __cdecl webrtc::AudioProcessing::Config::GainController1::operator=(struct webrtc::AudioProcessing::Config::GainController1 &&))
                  ??4GainController1@Config@AudioProcessing@webrtc@@QEAAAEAU0123@AEBU0123@@Z (public: struct webrtc::AudioProcessing::Config::GainController1 & __cdecl webrtc::AudioProcessing::Config::GainController1::operator=(struct webrtc::AudioProcessing::Config::GainController1 const &))
                  ??4GainController2@Config@AudioProcessing@webrtc@@QEAAAEAU0123@$$QEAU0123@@Z (public: struct webrtc::AudioProcessing::Config::GainController2 & __cdecl webrtc::AudioProcessing::Config::GainController2::operator=(struct webrtc::AudioProcessing::Config::GainController2 &&))
                  ??4GainController2@Config@AudioProcessing@webrtc@@QEAAAEAU0123@AEBU0123@@Z (public: struct webrtc::AudioProcessing::Config::GainController2 & __cdecl webrtc::AudioProcessing::Config::GainController2::operator=(struct webrtc::AudioProcessing::Config::GainController2 const &))
                  ??4Location@webrtc@@QEAAAEAV01@$$QEAV01@@Z (public: class webrtc::Location & __cdecl webrtc::Location::operator=(class webrtc::Location &&))
                  ??4Location@webrtc@@QEAAAEAV01@AEBV01@@Z (public: class webrtc::Location & __cdecl webrtc::Location::operator=(class webrtc::Location const &))
                  ??4Pipeline@Config@AudioProcessing@webrtc@@QEAAAEAU0123@$$QEAU0123@@Z (public: struct webrtc::AudioProcessing::Config::Pipeline & __cdecl webrtc::AudioProcessing::Config::Pipeline::operator=(struct webrtc::AudioProcessing::Config::Pipeline &&))
                  ??4Pipeline@Config@AudioProcessing@webrtc@@QEAAAEAU0123@AEBU0123@@Z (public: struct webrtc::AudioProcessing::Config::Pipeline & __cdecl webrtc::AudioProcessing::Config::Pipeline::operator=(struct webrtc::AudioProcessing::Config::Pipeline const &))
                  ??4RtpPacketInfo@webrtc@@QEAAAEAV01@$$QEAV01@@Z (public: class webrtc::RtpPacketInfo & __cdecl webrtc::RtpPacketInfo::operator=(class webrtc::RtpPacketInfo &&))
                  ??4RtpPacketInfo@webrtc@@QEAAAEAV01@AEBV01@@Z (public: class webrtc::RtpPacketInfo & __cdecl webrtc::RtpPacketInfo::operator=(class webrtc::RtpPacketInfo const &))
                  ??4RtpPacketInfos@webrtc@@QEAAAEAV01@$$QEAV01@@Z (public: class webrtc::RtpPacketInfos & __cdecl webrtc::RtpPacketInfos::operator=(class webrtc::RtpPacketInfos &&))
                  ??4RtpPacketInfos@webrtc@@QEAAAEAV01@AEBV01@@Z (public: class webrtc::RtpPacketInfos & __cdecl webrtc::RtpPacketInfos::operator=(class webrtc::RtpPacketInfos const &))
                  ??4TaskQueueBase@webrtc@@QEAAAEAV01@AEBV01@@Z (public: class webrtc::TaskQueueBase & __cdecl webrtc::TaskQueueBase::operator=(class webrtc::TaskQueueBase const &))
                  ??4TimingFrameInfo@webrtc@@QEAAAEAU01@$$QEAU01@@Z (public: struct webrtc::TimingFrameInfo & __cdecl webrtc::TimingFrameInfo::operator=(struct webrtc::TimingFrameInfo &&))
                  ??4TimingFrameInfo@webrtc@@QEAAAEAU01@AEBU01@@Z (public: struct webrtc::TimingFrameInfo & __cdecl webrtc::TimingFrameInfo::operator=(struct webrtc::TimingFrameInfo const &))
                  ??4VideoPlayoutDelay@webrtc@@QEAAAEAV01@AEBV01@@Z (public: class webrtc::VideoPlayoutDelay & __cdecl webrtc::VideoPlayoutDelay::operator=(class webrtc::VideoPlayoutDelay const &))
                  ??4VideoSendTiming@webrtc@@QEAAAEAU01@$$QEAU01@@Z (public: struct webrtc::VideoSendTiming & __cdecl webrtc::VideoSendTiming::operator=(struct webrtc::VideoSendTiming &&))
                  ??4VideoSendTiming@webrtc@@QEAAAEAU01@AEBU01@@Z (public: struct webrtc::VideoSendTiming & __cdecl webrtc::VideoSendTiming::operator=(struct webrtc::VideoSendTiming const &))
                  ??8AdaptiveDigital@GainController2@Config@AudioProcessing@webrtc@@QEBA_NAEBU01234@@Z (public: bool __cdecl webrtc::AudioProcessing::Config::GainController2::AdaptiveDigital::operator==(struct webrtc::AudioProcessing::Config::GainController2::AdaptiveDigital const &)const )
                  ??8GainController1@Config@AudioProcessing@webrtc@@QEBA_NAEBU0123@@Z (public: bool __cdecl webrtc::AudioProcessing::Config::GainController1::operator==(struct webrtc::AudioProcessing::Config::GainController1 const &)const )
                  ??8GainController2@Config@AudioProcessing@webrtc@@QEBA_NAEBU0123@@Z (public: bool __cdecl webrtc::AudioProcessing::Config::GainController2::operator==(struct webrtc::AudioProcessing::Config::GainController2 const &)const )
                  ??9AdaptiveDigital@GainController2@Config@AudioProcessing@webrtc@@QEBA_NAEBU01234@@Z (public: bool __cdecl webrtc::AudioProcessing::Config::GainController2::AdaptiveDigital::operator!=(struct webrtc::AudioProcessing::Config::GainController2::AdaptiveDigital const &)const )
                  ??9GainController1@Config@AudioProcessing@webrtc@@QEBA_NAEBU0123@@Z (public: bool __cdecl webrtc::AudioProcessing::Config::GainController1::operator!=(struct webrtc::AudioProcessing::Config::GainController1 const &)const )
                  ??9GainController2@Config@AudioProcessing@webrtc@@QEBA_NAEBU0123@@Z (public: bool __cdecl webrtc::AudioProcessing::Config::GainController2::operator!=(struct webrtc::AudioProcessing::Config::GainController2 const &)const )
                  ??ARtpPacketInfos@webrtc@@QEBAAEBVRtpPacketInfo@1@_K@Z (public: class webrtc::RtpPacketInfo const & __cdecl webrtc::RtpPacketInfos::operator[](unsigned __int64)const )
                  ??MTimingFrameInfo@webrtc@@QEBA_NAEBU01@@Z (public: bool __cdecl webrtc::TimingFrameInfo::operator<(struct webrtc::TimingFrameInfo const &)const )
                  ??NTimingFrameInfo@webrtc@@QEBA_NAEBU01@@Z (public: bool __cdecl webrtc::TimingFrameInfo::operator<=(struct webrtc::TimingFrameInfo const &)const )
                  ??_7AudioProcessing@webrtc@@6B@ (const webrtc::AudioProcessing::`vftable')
                  ??_7TaskQueueBase@webrtc@@6B@ (const webrtc::TaskQueueBase::`vftable')
                  ?Create@AecDumpFactory@webrtc@@SA?AV?$unique_ptr@VAecDump@webrtc@@U?$default_delete@VAecDump@webrtc@@@std@@@std@@PEAU_iobuf@@_JPEAVTaskQueueBase@2@@Z (public: static class std::unique_ptr<class webrtc::AecDump,struct std::default_delete<class webrtc::AecDump> > __cdecl webrtc::AecDumpFactory::Create(struct _iobuf *,__int64,class webrtc::TaskQueueBase *))
                  ?Create@AecDumpFactory@webrtc@@SA?AV?$unique_ptr@VAecDump@webrtc@@U?$default_delete@VAecDump@webrtc@@@std@@@std@@V?$basic_string_view@DU?$char_traits@D@std@@@4@_JPEAVTaskQueueBase@2@@Z (public: static class std::unique_ptr<class webrtc::AecDump,struct std::default_delete<class webrtc::AecDump> > __cdecl webrtc::AecDumpFactory::Create(class std::basic_string_view<char,struct std::char_traits<char> >,__int64,class webrtc::TaskQueueBase *))
                  ?Create@AecDumpFactory@webrtc@@SA?AV?$unique_ptr@VAecDump@webrtc@@U?$default_delete@VAecDump@webrtc@@@std@@@std@@VFileWrapper@2@_JPEAVTaskQueueBase@2@@Z (public: static class std::unique_ptr<class webrtc::AecDump,struct std::default_delete<class webrtc::AecDump> > __cdecl webrtc::AecDumpFactory::Create(class webrtc::FileWrapper,__int64,class webrtc::TaskQueueBase *))
                  ?Create@AudioProcessingBuilder@webrtc@@QEAA?AV?$scoped_refptr@VAudioProcessing@webrtc@@@2@XZ (public: class webrtc::scoped_refptr<class webrtc::AudioProcessing> __cdecl webrtc::AudioProcessingBuilder::Create(void))
                  ?Current@Location@webrtc@@SA?AV12@XZ (public: static class webrtc::Location __cdecl webrtc::Location::Current(void))
                  ?Current@TaskQueueBase@webrtc@@SAPEAV12@XZ (public: static class webrtc::TaskQueueBase * __cdecl webrtc::TaskQueueBase::Current(void))
                  ?EndToEndDelay@TimingFrameInfo@webrtc@@QEBA_JXZ (public: __int64 __cdecl webrtc::TimingFrameInfo::EndToEndDelay(void)const )
                  ?FatalLog@webrtc_checks_impl@rtc@@YAXPEBDH0PEBW4CheckArgType@12@ZZ (void __cdecl rtc::webrtc_checks_impl::FatalLog(char const *,int,char const *,enum rtc::webrtc_checks_impl::CheckArgType const *,...))
                  ?GetClockForTesting@rtc@@YAPEAVClockInterface@1@XZ (class rtc::ClockInterface * __cdecl rtc::GetClockForTesting(void))
                  ?GetDeltaCappedMs@VideoSendTiming@webrtc@@SAGVTimeDelta@2@@Z (public: static unsigned short __cdecl webrtc::VideoSendTiming::GetDeltaCappedMs(class webrtc::TimeDelta))
                  ?GetDeltaCappedMs@VideoSendTiming@webrtc@@SAG_J0@Z (public: static unsigned short __cdecl webrtc::VideoSendTiming::GetDeltaCappedMs(__int64,__int64))
                  ?GetFrameSize@AudioProcessing@webrtc@@SAHH@Z (public: static int __cdecl webrtc::AudioProcessing::GetFrameSize(int))
                  ?IsCurrent@TaskQueueBase@webrtc@@QEBA_NXZ (public: bool __cdecl webrtc::TaskQueueBase::IsCurrent(void)const )
                  ?IsInvalid@TimingFrameInfo@webrtc@@QEBA_NXZ (public: bool __cdecl webrtc::TimingFrameInfo::IsInvalid(void)const )
                  ?IsLongerThan@TimingFrameInfo@webrtc@@QEBA_NAEBU12@@Z (public: bool __cdecl webrtc::TimingFrameInfo::IsLongerThan(struct webrtc::TimingFrameInfo const &)const )
                  ?IsOutlier@TimingFrameInfo@webrtc@@QEBA_NXZ (public: bool __cdecl webrtc::TimingFrameInfo::IsOutlier(void)const )
                  ?IsTimerTriggered@TimingFrameInfo@webrtc@@QEBA_NXZ (public: bool __cdecl webrtc::TimingFrameInfo::IsTimerTriggered(void)const )
                  ?Minimal@VideoPlayoutDelay@webrtc@@SA?AV12@XZ (public: static class webrtc::VideoPlayoutDelay __cdecl webrtc::VideoPlayoutDelay::Minimal(void))
                  ?PostDelayedHighPrecisionTask@TaskQueueBase@webrtc@@QEAAXV?$AnyInvocable@$$A8@@EHAAXXZ@lts_20240722@absl@@VTimeDelta@2@AEBVLocation@2@@Z (public: void __cdecl webrtc::TaskQueueBase::PostDelayedHighPrecisionTask(class absl::lts_20240722::AnyInvocable<void __cdecl(void)&& >,class webrtc::TimeDelta,class webrtc::Location const &))
                  ?PostDelayedTask@TaskQueueBase@webrtc@@QEAAXV?$AnyInvocable@$$A8@@EHAAXXZ@lts_20240722@absl@@VTimeDelta@2@AEBVLocation@2@@Z (public: void __cdecl webrtc::TaskQueueBase::PostDelayedTask(class absl::lts_20240722::AnyInvocable<void __cdecl(void)&& >,class webrtc::TimeDelta,class webrtc::Location const &))
                  ?PostDelayedTaskWithPrecision@TaskQueueBase@webrtc@@QEAAXW4DelayPrecision@12@V?$AnyInvocable@$$A8@@EHAAXXZ@lts_20240722@absl@@VTimeDelta@2@AEBVLocation@2@@Z (public: void __cdecl webrtc::TaskQueueBase::PostDelayedTaskWithPrecision(enum webrtc::TaskQueueBase::DelayPrecision,class absl::lts_20240722::AnyInvocable<void __cdecl(void)&& >,class webrtc::TimeDelta,class webrtc::Location const &))
                  ?PostTask@TaskQueueBase@webrtc@@QEAAXV?$AnyInvocable@$$A8@@EHAAXXZ@lts_20240722@absl@@AEBVLocation@2@@Z (public: void __cdecl webrtc::TaskQueueBase::PostTask(class absl::lts_20240722::AnyInvocable<void __cdecl(void)&& >,class webrtc::Location const &))
                  ?Set@VideoPlayoutDelay@webrtc@@QEAA_NVTimeDelta@2@0@Z (public: bool __cdecl webrtc::VideoPlayoutDelay::Set(class webrtc::TimeDelta,class webrtc::TimeDelta))
                  ?SetCaptureAnalyzer@AudioProcessingBuilder@webrtc@@QEAAAEAV12@V?$unique_ptr@VCustomAudioAnalyzer@webrtc@@U?$default_delete@VCustomAudioAnalyzer@webrtc@@@std@@@std@@@Z (public: class webrtc::AudioProcessingBuilder & __cdecl webrtc::AudioProcessingBuilder::SetCaptureAnalyzer(class std::unique_ptr<class webrtc::CustomAudioAnalyzer,struct std::default_delete<class webrtc::CustomAudioAnalyzer> >))
                  ?SetCapturePostProcessing@AudioProcessingBuilder@webrtc@@QEAAAEAV12@V?$unique_ptr@VCustomProcessing@webrtc@@U?$default_delete@VCustomProcessing@webrtc@@@std@@@std@@@Z (public: class webrtc::AudioProcessingBuilder & __cdecl webrtc::AudioProcessingBuilder::SetCapturePostProcessing(class std::unique_ptr<class webrtc::CustomProcessing,struct std::default_delete<class webrtc::CustomProcessing> >))
                  ?SetClockForTesting@rtc@@YAPEAVClockInterface@1@PEAV21@@Z (class rtc::ClockInterface * __cdecl rtc::SetClockForTesting(class rtc::ClockInterface *))
                  ?SetConfig@AudioProcessingBuilder@webrtc@@QEAAAEAV12@AEBUConfig@AudioProcessing@2@@Z (public: class webrtc::AudioProcessingBuilder & __cdecl webrtc::AudioProcessingBuilder::SetConfig(struct webrtc::AudioProcessing::Config const &))
                  ?SetEchoControlFactory@AudioProcessingBuilder@webrtc@@QEAAAEAV12@V?$unique_ptr@VEchoControlFactory@webrtc@@U?$default_delete@VEchoControlFactory@webrtc@@@std@@@std@@@Z (public: class webrtc::AudioProcessingBuilder & __cdecl webrtc::AudioProcessingBuilder::SetEchoControlFactory(class std::unique_ptr<class webrtc::EchoControlFactory,struct std::default_delete<class webrtc::EchoControlFactory> >))
                  ?SetEchoDetector@AudioProcessingBuilder@webrtc@@QEAAAEAV12@V?$scoped_refptr@VEchoDetector@webrtc@@@2@@Z (public: class webrtc::AudioProcessingBuilder & __cdecl webrtc::AudioProcessingBuilder::SetEchoDetector(class webrtc::scoped_refptr<class webrtc::EchoDetector>))
                  ?SetRenderPreProcessing@AudioProcessingBuilder@webrtc@@QEAAAEAV12@V?$unique_ptr@VCustomProcessing@webrtc@@U?$default_delete@VCustomProcessing@webrtc@@@std@@@std@@@Z (public: class webrtc::AudioProcessingBuilder & __cdecl webrtc::AudioProcessingBuilder::SetRenderPreProcessing(class std::unique_ptr<class webrtc::CustomProcessing,struct std::default_delete<class webrtc::CustomProcessing> >))
                  ?SetupInternalTracer@tracing@rtc@@YAX_N@Z (void __cdecl rtc::tracing::SetupInternalTracer(bool))
                  ?ShutdownInternalTracer@tracing@rtc@@YAXXZ (void __cdecl rtc::tracing::ShutdownInternalTracer(void))
                  ?StartInternalCapture@tracing@rtc@@YA_NV?$basic_string_view@DU?$char_traits@D@std@@@std@@@Z (bool __cdecl rtc::tracing::StartInternalCapture(class std::basic_string_view<char,struct std::char_traits<char> >))
                  ?StartInternalCaptureToFile@tracing@rtc@@YAXPEAU_iobuf@@@Z (void __cdecl rtc::tracing::StartInternalCaptureToFile(struct _iobuf *))
                  ?StopInternalCapture@tracing@rtc@@YAXXZ (void __cdecl rtc::tracing::StopInternalCapture(void))
                  ?TimeMicros@rtc@@YA_JXZ (__int64 __cdecl rtc::TimeMicros(void))
                  ?TimeMillis@rtc@@YA_JXZ (__int64 __cdecl rtc::TimeMillis(void))
                  ?TimeNanos@rtc@@YA_JXZ (__int64 __cdecl rtc::TimeNanos(void))
                  ?TimeUTCMicros@rtc@@YA_JXZ (__int64 __cdecl rtc::TimeUTCMicros(void))
                  ?TimeUTCMillis@rtc@@YA_JXZ (__int64 __cdecl rtc::TimeUTCMillis(void))
                  ?ToString@Config@AudioProcessing@webrtc@@QEBA?AV?$basic_string@DU?$char_traits@D@std@@V?$allocator@D@2@@std@@XZ (public: class std::basic_string<char,struct std::char_traits<char>,class std::allocator<char> > __cdecl webrtc::AudioProcessing::Config::ToString(void)const )
                  ?ToString@TimingFrameInfo@webrtc@@QEBA?AV?$basic_string@DU?$char_traits@D@std@@V?$allocator@D@2@@std@@XZ (public: class std::basic_string<char,struct std::char_traits<char>,class std::allocator<char> > __cdecl webrtc::TimingFrameInfo::ToString(void)const )
                  ?ToString@webrtc@@YA?AV?$basic_string@DU?$char_traits@D@std@@V?$allocator@D@2@@std@@VTimeDelta@1@@Z (class std::basic_string<char,struct std::char_traits<char>,class std::allocator<char> > __cdecl webrtc::ToString(class webrtc::TimeDelta))
                  ?UnreachableCodeReached@webrtc_checks_impl@rtc@@YAXXZ (void __cdecl rtc::webrtc_checks_impl::UnreachableCodeReached(void))
                  ?Validate@EchoCanceller3Config@webrtc@@SA_NPEAU12@@Z (public: static bool __cdecl webrtc::EchoCanceller3Config::Validate(struct webrtc::EchoCanceller3Config *))
                  ?absolute_capture_time@RtpPacketInfo@webrtc@@QEBAAEBV?$optional@UAbsoluteCaptureTime@webrtc@@@std@@XZ (public: class std::optional<struct webrtc::AbsoluteCaptureTime> const & __cdecl webrtc::RtpPacketInfo::absolute_capture_time(void)const )
                  ?at@RtpPacketInfos@webrtc@@QEBAAEBVRtpPacketInfo@2@_K@Z (public: class webrtc::RtpPacketInfo const & __cdecl webrtc::RtpPacketInfos::at(unsigned __int64)const )
                  ?audio_level@RtpPacketInfo@webrtc@@QEBA?AV?$optional@E@std@@XZ (public: class std::optional<unsigned char> __cdecl webrtc::RtpPacketInfo::audio_level(void)const )
                  ?back@RtpPacketInfos@webrtc@@QEBAAEBVRtpPacketInfo@2@XZ (public: class webrtc::RtpPacketInfo const & __cdecl webrtc::RtpPacketInfos::back(void)const )
                  ?begin@RtpPacketInfos@webrtc@@QEBA?AV?$_Vector_const_iterator@V?$_Vector_val@U?$_Simple_types@VRtpPacketInfo@webrtc@@@std@@@std@@@std@@XZ (public: class std::_Vector_const_iterator<class std::_Vector_val<struct std::_Simple_types<class webrtc::RtpPacketInfo> > > __cdecl webrtc::RtpPacketInfos::begin(void)const )
                  ?cbegin@RtpPacketInfos@webrtc@@QEBA?AV?$_Vector_const_iterator@V?$_Vector_val@U?$_Simple_types@VRtpPacketInfo@webrtc@@@std@@@std@@@std@@XZ (public: class std::_Vector_const_iterator<class std::_Vector_val<struct std::_Simple_types<class webrtc::RtpPacketInfo> > > __cdecl webrtc::RtpPacketInfos::cbegin(void)const )
                  ?cend@RtpPacketInfos@webrtc@@QEBA?AV?$_Vector_const_iterator@V?$_Vector_val@U?$_Simple_types@VRtpPacketInfo@webrtc@@@std@@@std@@@std@@XZ (public: class std::_Vector_const_iterator<class std::_Vector_val<struct std::_Simple_types<class webrtc::RtpPacketInfo> > > __cdecl webrtc::RtpPacketInfos::cend(void)const )
                  ?crbegin@RtpPacketInfos@webrtc@@QEBA?AV?$reverse_iterator@V?$_Vector_const_iterator@V?$_Vector_val@U?$_Simple_types@VRtpPacketInfo@webrtc@@@std@@@std@@@std@@@std@@XZ (public: class std::reverse_iterator<class std::_Vector_const_iterator<class std::_Vector_val<struct std::_Simple_types<class webrtc::RtpPacketInfo> > > > __cdecl webrtc::RtpPacketInfos::crbegin(void)const )
                  ?crend@RtpPacketInfos@webrtc@@QEBA?AV?$reverse_iterator@V?$_Vector_const_iterator@V?$_Vector_val@U?$_Simple_types@VRtpPacketInfo@webrtc@@@std@@@std@@@std@@@std@@XZ (public: class std::reverse_iterator<class std::_Vector_const_iterator<class std::_Vector_val<struct std::_Simple_types<class webrtc::RtpPacketInfo> > > > __cdecl webrtc::RtpPacketInfos::crend(void)const )
                  ?csrcs@RtpPacketInfo@webrtc@@QEBAAEBV?$vector@IV?$allocator@I@std@@@std@@XZ (public: class std::vector<unsigned int,class std::allocator<unsigned int> > const & __cdecl webrtc::RtpPacketInfo::csrcs(void)const )
                  ?empty@RtpPacketInfos@webrtc@@QEBA_NXZ (public: bool __cdecl webrtc::RtpPacketInfos::empty(void)const )
                  ?empty_entries@RtpPacketInfos@webrtc@@CAAEBV?$vector@VRtpPacketInfo@webrtc@@V?$allocator@VRtpPacketInfo@webrtc@@@std@@@std@@XZ (private: static class std::vector<class webrtc::RtpPacketInfo,class std::allocator<class webrtc::RtpPacketInfo> > const & __cdecl webrtc::RtpPacketInfos::empty_entries(void))
                  ?end@RtpPacketInfos@webrtc@@QEBA?AV?$_Vector_const_iterator@V?$_Vector_val@U?$_Simple_types@VRtpPacketInfo@webrtc@@@std@@@std@@@std@@XZ (public: class std::_Vector_const_iterator<class std::_Vector_val<struct std::_Simple_types<class webrtc::RtpPacketInfo> > > __cdecl webrtc::RtpPacketInfos::end(void)const )
                  ?entries@RtpPacketInfos@webrtc@@AEBAAEBV?$vector@VRtpPacketInfo@webrtc@@V?$allocator@VRtpPacketInfo@webrtc@@@std@@@std@@XZ (private: class std::vector<class webrtc::RtpPacketInfo,class std::allocator<class webrtc::RtpPacketInfo> > const & __cdecl webrtc::RtpPacketInfos::entries(void)const )
                  ?front@RtpPacketInfos@webrtc@@QEBAAEBVRtpPacketInfo@2@XZ (public: class webrtc::RtpPacketInfo const & __cdecl webrtc::RtpPacketInfos::front(void)const )
                  ?kChunkSizeMs@AudioProcessing@webrtc@@2HB (public: static int const webrtc::AudioProcessing::kChunkSizeMs)
                  ?kMax@VideoPlayoutDelay@webrtc@@2VTimeDelta@2@B (public: static class webrtc::TimeDelta const webrtc::VideoPlayoutDelay::kMax)
                  ?kMaxNativeSampleRateHz@AudioProcessing@webrtc@@2HB (public: static int const webrtc::AudioProcessing::kMaxNativeSampleRateHz)
                  ?kNativeSampleRatesHz@AudioProcessing@webrtc@@2QBHB (public: static int const * const webrtc::AudioProcessing::kNativeSampleRatesHz)
                  ?kNumNativeSampleRates@AudioProcessing@webrtc@@2_KB (public: static unsigned __int64 const webrtc::AudioProcessing::kNumNativeSampleRates)
                  ?local_capture_clock_offset@RtpPacketInfo@webrtc@@QEBAAEBV?$optional@VTimeDelta@webrtc@@@std@@XZ (public: class std::optional<class webrtc::TimeDelta> const & __cdecl webrtc::RtpPacketInfo::local_capture_clock_offset(void)const )
                  ?max@VideoPlayoutDelay@webrtc@@QEBA?AVTimeDelta@2@XZ (public: class webrtc::TimeDelta __cdecl webrtc::VideoPlayoutDelay::max(void)const )
                  ?min@VideoPlayoutDelay@webrtc@@QEBA?AVTimeDelta@2@XZ (public: class webrtc::TimeDelta __cdecl webrtc::VideoPlayoutDelay::min(void)const )
                  ?rbegin@RtpPacketInfos@webrtc@@QEBA?AV?$reverse_iterator@V?$_Vector_const_iterator@V?$_Vector_val@U?$_Simple_types@VRtpPacketInfo@webrtc@@@std@@@std@@@std@@@std@@XZ (public: class std::reverse_iterator<class std::_Vector_const_iterator<class std::_Vector_val<struct std::_Simple_types<class webrtc::RtpPacketInfo> > > > __cdecl webrtc::RtpPacketInfos::rbegin(void)const )
                  ?receive_time@RtpPacketInfo@webrtc@@QEBA?AVTimestamp@2@XZ (public: class webrtc::Timestamp __cdecl webrtc::RtpPacketInfo::receive_time(void)const )
                  ?rend@RtpPacketInfos@webrtc@@QEBA?AV?$reverse_iterator@V?$_Vector_const_iterator@V?$_Vector_val@U?$_Simple_types@VRtpPacketInfo@webrtc@@@std@@@std@@@std@@@std@@XZ (public: class std::reverse_iterator<class std::_Vector_const_iterator<class std::_Vector_val<struct std::_Simple_types<class webrtc::RtpPacketInfo> > > > __cdecl webrtc::RtpPacketInfos::rend(void)const )
                  ?rtp_timestamp@RtpPacketInfo@webrtc@@QEBAIXZ (public: unsigned int __cdecl webrtc::RtpPacketInfo::rtp_timestamp(void)const )
                  ?set_absolute_capture_time@RtpPacketInfo@webrtc@@QEAAAEAV12@AEBV?$optional@UAbsoluteCaptureTime@webrtc@@@std@@@Z (public: class webrtc::RtpPacketInfo & __cdecl webrtc::RtpPacketInfo::set_absolute_capture_time(class std::optional<struct webrtc::AbsoluteCaptureTime> const &))
                  ?set_audio_level@RtpPacketInfo@webrtc@@QEAAAEAV12@V?$optional@E@std@@@Z (public: class webrtc::RtpPacketInfo & __cdecl webrtc::RtpPacketInfo::set_audio_level(class std::optional<unsigned char>))
                  ?set_csrcs@RtpPacketInfo@webrtc@@QEAAXV?$vector@IV?$allocator@I@std@@@std@@@Z (public: void __cdecl webrtc::RtpPacketInfo::set_csrcs(class std::vector<unsigned int,class std::allocator<unsigned int> >))
                  ?set_local_capture_clock_offset@RtpPacketInfo@webrtc@@QEAAAEAV12@V?$optional@VTimeDelta@webrtc@@@std@@@Z (public: class webrtc::RtpPacketInfo & __cdecl webrtc::RtpPacketInfo::set_local_capture_clock_offset(class std::optional<class webrtc::TimeDelta>))
                  ?set_receive_time@RtpPacketInfo@webrtc@@QEAAXVTimestamp@2@@Z (public: void __cdecl webrtc::RtpPacketInfo::set_receive_time(class webrtc::Timestamp))
                  ?set_rtp_timestamp@RtpPacketInfo@webrtc@@QEAAXI@Z (public: void __cdecl webrtc::RtpPacketInfo::set_rtp_timestamp(unsigned int))
                  ?set_ssrc@RtpPacketInfo@webrtc@@QEAAXI@Z (public: void __cdecl webrtc::RtpPacketInfo::set_ssrc(unsigned int))
                  ?size@RtpPacketInfos@webrtc@@QEBA_KXZ (public: unsigned __int64 __cdecl webrtc::RtpPacketInfos::size(void)const )
                  ?ssrc@RtpPacketInfo@webrtc@@QEBAIXZ (public: unsigned int __cdecl webrtc::RtpPacketInfo::ssrc(void)const )
                  ?value@?1??empty_entries@RtpPacketInfos@webrtc@@CAAEBV?$vector@VRtpPacketInfo@webrtc@@V?$allocator@VRtpPacketInfo@webrtc@@@std@@@std@@XZ@4AEBV45@EB (class std::vector<class webrtc::RtpPacketInfo,class std::allocator<class webrtc::RtpPacketInfo> > const & const `private: static class std::vector<class webrtc::RtpPacketInfo,class std::allocator<class webrtc::RtpPacketInfo> > const & __cdecl webrtc::RtpPacketInfos::empty_entries(void)'::`2'::value)

